target datalayout = "e-m:e-p270:32:32-p271:32:32-p272:64:64-i64:64-i128:128-f80:128-n8:16:32:64-S128"
target triple = "x86_64-pc-linux-gnu"

%struct.ECPGtype = type { i32, ptr, ptr, ptr, %union.anon, i32 }
%union.anon = type { ptr }
%struct.ECPGstruct_member = type { ptr, ptr, ptr }

@.str.36 = private unnamed_addr constant [1 x i8] zeroinitializer, align 1
@.str.78 = private unnamed_addr constant [6 x i8] c"%s%s.\00", align 1
@.str.79 = private unnamed_addr constant [7 x i8] c"%s%s->\00", align 1
@ecpg_no_indicator = external global %struct.ECPGtype, align 8
@struct_no_indicator = internal global %struct.ECPGstruct_member { ptr @.str.82, ptr @ecpg_no_indicator, ptr null }, align 8
@.str.80 = private unnamed_addr constant [42 x i8] c"indicator struct \22%s\22 has too few members\00", align 1
@.str.81 = private unnamed_addr constant [43 x i8] c"indicator struct \22%s\22 has too many members\00", align 1

; Function Attrs: inlinehint nounwind willreturn memory(read) uwtable
define available_externally i32 @atoi(ptr noundef nonnull %0) #6 {
  %2 = alloca ptr, align 8
  store ptr %0, ptr %2, align 8
  %3 = load ptr, ptr %2, align 8
  %4 = call i64 @strtol(ptr noundef %3, ptr noundef null, i32 noundef 10) #7
  %5 = trunc i64 %4 to i32
  ret i32 %5
}

; Function Attrs: nounwind uwtable
define internal void @ECPGdump_a_struct(ptr noundef %0, ptr noundef %1, ptr noundef %2, ptr noundef %3, ptr noundef %4, ptr noundef %5, ptr noundef %6, ptr noundef %7) #0 {
  %9 = alloca ptr, align 8
  %10 = alloca ptr, align 8
  %11 = alloca ptr, align 8
  %12 = alloca ptr, align 8
  %13 = alloca ptr, align 8
  %14 = alloca ptr, align 8
  %15 = alloca ptr, align 8
  %16 = alloca ptr, align 8
  %17 = alloca ptr, align 8
  %18 = alloca ptr, align 8
  %19 = alloca ptr, align 8
  %20 = alloca ptr, align 8
  store ptr %0, ptr %9, align 8
  store ptr %1, ptr %10, align 8
  store ptr %2, ptr %11, align 8
  store ptr %3, ptr %12, align 8
  store ptr %4, ptr %13, align 8
  store ptr %5, ptr %14, align 8
  store ptr %6, ptr %15, align 8
  store ptr %7, ptr %16, align 8
  call void @llvm.lifetime.start.p0(i64 8, ptr %17) #7
  call void @llvm.lifetime.start.p0(i64 8, ptr %18) #7
  store ptr null, ptr %18, align 8
  call void @llvm.lifetime.start.p0(i64 8, ptr %19) #7
  %21 = load ptr, ptr %10, align 8
  %22 = call i64 @strlen(ptr noundef %21) #8
  %23 = load ptr, ptr %15, align 8
  %24 = icmp eq ptr %23, null
  br i1 %24, label %25, label %26

25:                                               ; preds = %8
  br label %29

26:                                               ; preds = %8
  %27 = load ptr, ptr %15, align 8
  %28 = call i64 @strlen(ptr noundef %27) #8
  br label %29

29:                                               ; preds = %26, %25
  %30 = phi i64 [ 0, %25 ], [ %28, %26 ]
  %31 = add i64 %22, %30
  %32 = add i64 %31, 3
  %33 = call ptr @mm_alloc(i64 noundef %32)
  store ptr %33, ptr %19, align 8
  call void @llvm.lifetime.start.p0(i64 8, ptr %20) #7
  %34 = load ptr, ptr %11, align 8
  %35 = call i64 @strlen(ptr noundef %34) #8
  %36 = load ptr, ptr %16, align 8
  %37 = icmp eq ptr %36, null
  br i1 %37, label %38, label %39

38:                                               ; preds = %29
  br label %42

39:                                               ; preds = %29
  %40 = load ptr, ptr %16, align 8
  %41 = call i64 @strlen(ptr noundef %40) #8
  br label %42

42:                                               ; preds = %39, %38
  %43 = phi i64 [ 0, %38 ], [ %41, %39 ]
  %44 = add i64 %35, %43
  %45 = add i64 %44, 3
  %46 = call ptr @mm_alloc(i64 noundef %45)
  store ptr %46, ptr %20, align 8
  %47 = load ptr, ptr %12, align 8
  %48 = call i32 @atoi(ptr noundef %47) #8
  %49 = icmp eq i32 %48, 1
  br i1 %49, label %50, label %61

50:                                               ; preds = %42
  %51 = load ptr, ptr %19, align 8
  %52 = load ptr, ptr %15, align 8
  %53 = icmp ne ptr %52, null
  br i1 %53, label %54, label %56

54:                                               ; preds = %50
  %55 = load ptr, ptr %15, align 8
  br label %57

56:                                               ; preds = %50
  br label %57

57:                                               ; preds = %56, %54
  %58 = phi ptr [ %55, %54 ], [ @.str.36, %56 ]
  %59 = load ptr, ptr %10, align 8
  %60 = call i32 (ptr, ptr, ...) @pg_sprintf(ptr noundef %51, ptr noundef @.str.78, ptr noundef %58, ptr noundef %59)
  br label %72

61:                                               ; preds = %42
  %62 = load ptr, ptr %19, align 8
  %63 = load ptr, ptr %15, align 8
  %64 = icmp ne ptr %63, null
  br i1 %64, label %65, label %67

65:                                               ; preds = %61
  %66 = load ptr, ptr %15, align 8
  br label %68

67:                                               ; preds = %61
  br label %68

68:                                               ; preds = %67, %65
  %69 = phi ptr [ %66, %65 ], [ @.str.36, %67 ]
  %70 = load ptr, ptr %10, align 8
  %71 = call i32 (ptr, ptr, ...) @pg_sprintf(ptr noundef %62, ptr noundef @.str.79, ptr noundef %69, ptr noundef %70)
  br label %72

72:                                               ; preds = %68, %57
  %73 = load ptr, ptr %19, align 8
  store ptr %73, ptr %15, align 8
  %74 = load ptr, ptr %14, align 8
  %75 = icmp eq ptr %74, @ecpg_no_indicator
  br i1 %75, label %76, label %77

76:                                               ; preds = %72
  store ptr @struct_no_indicator, ptr %18, align 8
  br label %112

77:                                               ; preds = %72
  %78 = load ptr, ptr %14, align 8
  %79 = icmp ne ptr %78, null
  br i1 %79, label %80, label %111

80:                                               ; preds = %77
  %81 = load ptr, ptr %12, align 8
  %82 = call i32 @atoi(ptr noundef %81) #8
  %83 = icmp eq i32 %82, 1
  br i1 %83, label %84, label %95

84:                                               ; preds = %80
  %85 = load ptr, ptr %20, align 8
  %86 = load ptr, ptr %16, align 8
  %87 = icmp ne ptr %86, null
  br i1 %87, label %88, label %90

88:                                               ; preds = %84
  %89 = load ptr, ptr %16, align 8
  br label %91

90:                                               ; preds = %84
  br label %91

91:                                               ; preds = %90, %88
  %92 = phi ptr [ %89, %88 ], [ @.str.36, %90 ]
  %93 = load ptr, ptr %11, align 8
  %94 = call i32 (ptr, ptr, ...) @pg_sprintf(ptr noundef %85, ptr noundef @.str.78, ptr noundef %92, ptr noundef %93)
  br label %106

95:                                               ; preds = %80
  %96 = load ptr, ptr %20, align 8
  %97 = load ptr, ptr %16, align 8
  %98 = icmp ne ptr %97, null
  br i1 %98, label %99, label %101

99:                                               ; preds = %95
  %100 = load ptr, ptr %16, align 8
  br label %102

101:                                              ; preds = %95
  br label %102

102:                                              ; preds = %101, %99
  %103 = phi ptr [ %100, %99 ], [ @.str.36, %101 ]
  %104 = load ptr, ptr %11, align 8
  %105 = call i32 (ptr, ptr, ...) @pg_sprintf(ptr noundef %96, ptr noundef @.str.79, ptr noundef %103, ptr noundef %104)
  br label %106

106:                                              ; preds = %102, %91
  %107 = load ptr, ptr %20, align 8
  store ptr %107, ptr %16, align 8
  %108 = load ptr, ptr %14, align 8
  %109 = getelementptr inbounds nuw %struct.ECPGtype, ptr %108, i32 0, i32 4
  %110 = load ptr, ptr %109, align 8
  store ptr %110, ptr %18, align 8
  br label %111

111:                                              ; preds = %106, %77
  br label %112

112:                                              ; preds = %111, %76
  %113 = load ptr, ptr %13, align 8
  %114 = getelementptr inbounds nuw %struct.ECPGtype, ptr %113, i32 0, i32 4
  %115 = load ptr, ptr %114, align 8
  store ptr %115, ptr %17, align 8
  br label %116

116:                                              ; preds = %180, %112
  %117 = load ptr, ptr %17, align 8
  %118 = icmp ne ptr %117, null
  br i1 %118, label %119, label %184

119:                                              ; preds = %116
  %120 = load ptr, ptr %9, align 8
  %121 = load ptr, ptr %17, align 8
  %122 = getelementptr inbounds nuw %struct.ECPGstruct_member, ptr %121, i32 0, i32 0
  %123 = load ptr, ptr %122, align 8
  %124 = load ptr, ptr %17, align 8
  %125 = getelementptr inbounds nuw %struct.ECPGstruct_member, ptr %124, i32 0, i32 1
  %126 = load ptr, ptr %125, align 8
  %127 = load ptr, ptr %18, align 8
  %128 = icmp ne ptr %127, null
  br i1 %128, label %129, label %133

129:                                              ; preds = %119
  %130 = load ptr, ptr %18, align 8
  %131 = getelementptr inbounds nuw %struct.ECPGstruct_member, ptr %130, i32 0, i32 0
  %132 = load ptr, ptr %131, align 8
  br label %134

133:                                              ; preds = %119
  br label %134

134:                                              ; preds = %133, %129
  %135 = phi ptr [ %132, %129 ], [ null, %133 ]
  %136 = load ptr, ptr %18, align 8
  %137 = icmp ne ptr %136, null
  br i1 %137, label %138, label %142

138:                                              ; preds = %134
  %139 = load ptr, ptr %18, align 8
  %140 = getelementptr inbounds nuw %struct.ECPGstruct_member, ptr %139, i32 0, i32 1
  %141 = load ptr, ptr %140, align 8
  br label %143

142:                                              ; preds = %134
  br label %143

143:                                              ; preds = %142, %138
  %144 = phi ptr [ %141, %138 ], [ null, %142 ]
  %145 = load ptr, ptr %15, align 8
  %146 = load ptr, ptr %16, align 8
  %147 = load ptr, ptr %12, align 8
  %148 = load ptr, ptr %13, align 8
  %149 = getelementptr inbounds nuw %struct.ECPGtype, ptr %148, i32 0, i32 3
  %150 = load ptr, ptr %149, align 8
  %151 = load ptr, ptr %18, align 8
  %152 = icmp ne ptr %151, null
  br i1 %152, label %153, label %157

153:                                              ; preds = %143
  %154 = load ptr, ptr %14, align 8
  %155 = getelementptr inbounds nuw %struct.ECPGtype, ptr %154, i32 0, i32 3
  %156 = load ptr, ptr %155, align 8
  br label %158

157:                                              ; preds = %143
  br label %158

158:                                              ; preds = %157, %153
  %159 = phi ptr [ %156, %153 ], [ null, %157 ]
  call void @ECPGdump_a_type(ptr noundef %120, ptr noundef %123, ptr noundef %126, i32 noundef -1, ptr noundef %135, ptr noundef %144, i32 noundef -1, ptr noundef %145, ptr noundef %146, ptr noundef %147, ptr noundef %150, ptr noundef %159)
  %160 = load ptr, ptr %18, align 8
  %161 = icmp ne ptr %160, null
  br i1 %161, label %162, label %179

162:                                              ; preds = %158
  %163 = load ptr, ptr %18, align 8
  %164 = icmp ne ptr %163, @struct_no_indicator
  br i1 %164, label %165, label %179

165:                                              ; preds = %162
  %166 = load ptr, ptr %18, align 8
  %167 = getelementptr inbounds nuw %struct.ECPGstruct_member, ptr %166, i32 0, i32 2
  %168 = load ptr, ptr %167, align 8
  store ptr %168, ptr %18, align 8
  %169 = load ptr, ptr %18, align 8
  %170 = icmp eq ptr %169, null
  br i1 %170, label %171, label %178

171:                                              ; preds = %165
  %172 = load ptr, ptr %17, align 8
  %173 = getelementptr inbounds nuw %struct.ECPGstruct_member, ptr %172, i32 0, i32 2
  %174 = load ptr, ptr %173, align 8
  %175 = icmp ne ptr %174, null
  br i1 %175, label %176, label %178

176:                                              ; preds = %171
  %177 = load ptr, ptr %11, align 8
  call void (i32, i32, ptr, ...) @mmerror(i32 noundef 3, i32 noundef 0, ptr noundef @.str.80, ptr noundef %177)
  store ptr @struct_no_indicator, ptr %18, align 8
  br label %178

178:                                              ; preds = %176, %171, %165
  br label %179

179:                                              ; preds = %178, %162, %158
  br label %180

180:                                              ; preds = %179
  %181 = load ptr, ptr %17, align 8
  %182 = getelementptr inbounds nuw %struct.ECPGstruct_member, ptr %181, i32 0, i32 2
  %183 = load ptr, ptr %182, align 8
  store ptr %183, ptr %17, align 8
  br label %116, !llvm.loop !7

184:                                              ; preds = %116
  %185 = load ptr, ptr %14, align 8
  %186 = icmp ne ptr %185, null
  br i1 %186, label %187, label %195

187:                                              ; preds = %184
  %188 = load ptr, ptr %18, align 8
  %189 = icmp ne ptr %188, null
  br i1 %189, label %190, label %195

190:                                              ; preds = %187
  %191 = load ptr, ptr %18, align 8
  %192 = icmp ne ptr %191, @struct_no_indicator
  br i1 %192, label %193, label %195

193:                                              ; preds = %190
  %194 = load ptr, ptr %11, align 8
  call void (i32, i32, ptr, ...) @mmerror(i32 noundef 3, i32 noundef 0, ptr noundef @.str.81, ptr noundef %194)
  br label %195

195:                                              ; preds = %193, %190, %187, %184
  %196 = load ptr, ptr %19, align 8
  call void @free(ptr noundef %196) #7
  %197 = load ptr, ptr %20, align 8
  call void @free(ptr noundef %197) #7
  call void @llvm.lifetime.end.p0(i64 8, ptr %20) #7
  call void @llvm.lifetime.end.p0(i64 8, ptr %19) #7
  call void @llvm.lifetime.end.p0(i64 8, ptr %18) #7
  call void @llvm.lifetime.end.p0(i64 8, ptr %17) #7
  ret void
}