; Function Attrs: nounwind uwtable
define internal fastcc void @ECPGdump_a_struct(ptr noundef %0, ptr noundef %1, ptr noundef %2, ptr noundef %3, ptr noundef readonly captures(none) %4, ptr noundef readonly captures(address) %5, ptr noundef %6, ptr noundef %7) unnamed_addr #0 {
  %9 = tail call i64 @strlen(ptr noundef nonnull dereferenceable(1) %1) #8
  %10 = icmp eq ptr %6, null
  br i1 %10, label %13, label %11

11:                                               ; preds = %8
  %12 = tail call i64 @strlen(ptr noundef nonnull dereferenceable(1) %6) #8
  br label %13

13:                                               ; preds = %8, %11
  %14 = phi i64 [ %12, %11 ], [ 0, %8 ]
  %15 = add i64 %9, 3
  %16 = add i64 %15, %14
  %17 = tail call ptr @mm_alloc(i64 noundef %16) #7
  %18 = tail call i64 @strlen(ptr noundef nonnull dereferenceable(1) %2) #8
  %19 = icmp eq ptr %7, null
  br i1 %19, label %22, label %20

20:                                               ; preds = %13
  %21 = tail call i64 @strlen(ptr noundef nonnull dereferenceable(1) %7) #8
  br label %22

22:                                               ; preds = %13, %20
  %23 = phi i64 [ %21, %20 ], [ 0, %13 ]
  %24 = add i64 %18, 3
  %25 = add i64 %24, %23
  %26 = tail call ptr @mm_alloc(i64 noundef %25) #7
  %27 = tail call i64 @strtol(ptr noundef nonnull captures(none) %3, ptr noundef null, i32 noundef 10) #7
  %28 = and i64 %27, 4294967295
  %29 = icmp eq i64 %28, 1
  %30 = select i1 %10, ptr @.str.36, ptr %6
  %.str.78..str.79 = select i1 %29, ptr @.str.78, ptr @.str.79
  %31 = tail call i32 (ptr, ptr, ...) @pg_sprintf(ptr noundef %17, ptr noundef nonnull %.str.78..str.79, ptr noundef nonnull %30, ptr noundef nonnull %1) #7
  %32 = icmp eq ptr %5, @ecpg_no_indicator
  br i1 %32, label %42, label %33

33:                                               ; preds = %22
  %.not70 = icmp eq ptr %5, null
  br i1 %.not70, label %42, label %34

34:                                               ; preds = %33
  %35 = tail call i64 @strtol(ptr noundef nonnull captures(none) %3, ptr noundef null, i32 noundef 10) #7
  %36 = and i64 %35, 4294967295
  %37 = icmp eq i64 %36, 1
  %38 = select i1 %19, ptr @.str.36, ptr %7
  %.str.78..str.7984 = select i1 %37, ptr @.str.78, ptr @.str.79
  %39 = tail call i32 (ptr, ptr, ...) @pg_sprintf(ptr noundef %26, ptr noundef nonnull %.str.78..str.7984, ptr noundef nonnull %38, ptr noundef nonnull %2) #7
  %40 = getelementptr inbounds nuw i8, ptr %5, i64 32
  %41 = load ptr, ptr %40, align 8
  br label %42

42:                                               ; preds = %22, %33, %34
  %.062 = phi ptr [ %41, %34 ], [ null, %33 ], [ @struct_no_indicator, %22 ]
  %.0 = phi ptr [ %26, %34 ], [ %7, %33 ], [ %7, %22 ]
  %43 = getelementptr inbounds nuw i8, ptr %4, i64 32
  %.06379 = load ptr, ptr %43, align 8
  %.not7380 = icmp eq ptr %.06379, null
  br i1 %.not7380, label %._crit_edge, label %.lr.ph

.lr.ph:                                           ; preds = %42
  %44 = getelementptr inbounds nuw i8, ptr %4, i64 24
  %45 = getelementptr inbounds nuw i8, ptr %5, i64 24
  br label %46

46:                                               ; preds = %.lr.ph, %65
  %.06382 = phi ptr [ %.06379, %.lr.ph ], [ %.063, %65 ]
  %.181 = phi ptr [ %.062, %.lr.ph ], [ %.2, %65 ]
  %47 = load ptr, ptr %.06382, align 8
  %48 = getelementptr inbounds nuw i8, ptr %.06382, i64 8
  %49 = load ptr, ptr %48, align 8
  %.not = icmp eq ptr %.181, null
  br i1 %.not, label %.thread76, label %51

.thread76:                                        ; preds = %46
  %50 = load ptr, ptr %44, align 8
  tail call void @ECPGdump_a_type(ptr noundef %0, ptr noundef %47, ptr noundef %49, i32 noundef -1, ptr noundef null, ptr noundef null, i32 noundef -1, ptr noundef %17, ptr noundef %.0, ptr noundef nonnull %3, ptr noundef %50, ptr noundef null)
  br label %65

51:                                               ; preds = %46
  %52 = load ptr, ptr %.181, align 8
  %53 = getelementptr inbounds nuw i8, ptr %.181, i64 8
  %54 = load ptr, ptr %53, align 8
  %55 = load ptr, ptr %44, align 8
  %56 = load ptr, ptr %45, align 8
  tail call void @ECPGdump_a_type(ptr noundef %0, ptr noundef %47, ptr noundef %49, i32 noundef -1, ptr noundef %52, ptr noundef %54, i32 noundef -1, ptr noundef %17, ptr noundef %.0, ptr noundef nonnull %3, ptr noundef %55, ptr noundef %56)
  %.not78 = icmp eq ptr %.181, @struct_no_indicator
  br i1 %.not78, label %65, label %57

57:                                               ; preds = %51
  %58 = getelementptr inbounds nuw i8, ptr %.181, i64 16
  %59 = load ptr, ptr %58, align 8
  %60 = icmp eq ptr %59, null
  br i1 %60, label %61, label %65

61:                                               ; preds = %57
  %62 = getelementptr inbounds nuw i8, ptr %.06382, i64 16
  %63 = load ptr, ptr %62, align 8
  %.not74 = icmp eq ptr %63, null
  br i1 %.not74, label %65, label %64

64:                                               ; preds = %61
  tail call void (i32, i32, ptr, ...) @mmerror(i32 noundef 3, i32 noundef 0, ptr noundef nonnull @.str.80, ptr noundef nonnull %2) #7
  br label %65

65:                                               ; preds = %.thread76, %51, %64, %61, %57
  %.2 = phi ptr [ @struct_no_indicator, %64 ], [ null, %61 ], [ %59, %57 ], [ @struct_no_indicator, %51 ], [ null, %.thread76 ]
  %66 = getelementptr inbounds nuw i8, ptr %.06382, i64 16
  %.063 = load ptr, ptr %66, align 8
  %.not73 = icmp eq ptr %.063, null
  br i1 %.not73, label %._crit_edge, label %46, !llvm.loop !7

._crit_edge:                                      ; preds = %65, %42
  %.1.lcssa = phi ptr [ %.062, %42 ], [ %.2, %65 ]
  %67 = icmp ne ptr %5, null
  %68 = icmp ne ptr %.1.lcssa, null
  %69 = icmp ne ptr %.1.lcssa, @struct_no_indicator
  %70 = and i1 %68, %69
  %or.cond5 = select i1 %67, i1 %70, i1 false
  br i1 %or.cond5, label %71, label %72

71:                                               ; preds = %._crit_edge
  tail call void (i32, i32, ptr, ...) @mmerror(i32 noundef 3, i32 noundef 0, ptr noundef nonnull @.str.81, ptr noundef nonnull %2) #7
  br label %72

72:                                               ; preds = %71, %._crit_edge
  tail call void @free(ptr noundef %17) #7
  tail call void @free(ptr noundef %26) #7
  ret void
}